target datalayout = "e-m:e-p270:32:32-p271:32:32-p272:64:64-i64:64-i128:128-f80:128-n8:16:32:64-S128"
target triple = "x86_64-pc-linux-gnu"

%struct.SparseMatrix_struct = type { i32, i32, i32, i32, i32, ptr, ptr, ptr, i32, i8, i64 }

@stderr = external global ptr, align 8
@.str = private unnamed_addr constant [58 x i8] c"integer overflow when trying to allocate %zu * %zu bytes\0A\00", align 1
@.str.1 = private unnamed_addr constant [49 x i8] c"out of memory when trying to allocate %zu bytes\0A\00", align 1

; Function Attrs: nounwind uwtable
define void @SparseMatrix_delete(ptr noundef %0) #0 {
  %2 = alloca ptr, align 8
  store ptr %0, ptr %2, align 8, !tbaa !3
  %3 = load ptr, ptr %2, align 8, !tbaa !3
  %4 = icmp ne ptr %3, null
  br i1 %4, label %6, label %5

5:                                                ; preds = %1
  br label %17

6:                                                ; preds = %1
  %7 = load ptr, ptr %2, align 8, !tbaa !3
  %8 = getelementptr inbounds nuw %struct.SparseMatrix_struct, ptr %7, i32 0, i32 5
  %9 = load ptr, ptr %8, align 8, !tbaa !8
  call void @free(ptr noundef %9) #11
  %10 = load ptr, ptr %2, align 8, !tbaa !3
  %11 = getelementptr inbounds nuw %struct.SparseMatrix_struct, ptr %10, i32 0, i32 6
  %12 = load ptr, ptr %11, align 8, !tbaa !15
  call void @free(ptr noundef %12) #11
  %13 = load ptr, ptr %2, align 8, !tbaa !3
  %14 = getelementptr inbounds nuw %struct.SparseMatrix_struct, ptr %13, i32 0, i32 7
  %15 = load ptr, ptr %14, align 8, !tbaa !27
  call void @free(ptr noundef %15) #11
  %16 = load ptr, ptr %2, align 8, !tbaa !3
  call void @free(ptr noundef %16) #11
  br label %17

17:                                               ; preds = %6, %5
  ret void
}

; Function Attrs: inlinehint nounwind uwtable
define internal ptr @gv_calloc(i64 noundef %0, i64 noundef %1) #2 {
  %3 = alloca i64, align 8
  %4 = alloca i64, align 8
  %5 = alloca ptr, align 8
  store i64 %0, ptr %3, align 8, !tbaa !52
  store i64 %1, ptr %4, align 8, !tbaa !52
  %6 = load i64, ptr %3, align 8, !tbaa !52
  %7 = icmp ugt i64 %6, 0
  br i1 %7, label %8, label %18

8:                                                ; preds = %2
  %9 = load i64, ptr %3, align 8, !tbaa !52
  %10 = udiv i64 -1, %9
  %11 = load i64, ptr %4, align 8, !tbaa !52
  %12 = icmp ult i64 %10, %11
  br i1 %12, label %13, label %18

13:                                               ; preds = %8
  %14 = load ptr, ptr @stderr, align 8, !tbaa !85
  %15 = load i64, ptr %3, align 8, !tbaa !52
  %16 = load i64, ptr %4, align 8, !tbaa !52
  %17 = call i32 (ptr, ptr, ...) @fprintf(ptr noundef %14, ptr noundef @.str, i64 noundef %15, i64 noundef %16) #11
  call void @graphviz_exit(i32 noundef 1) #12
  unreachable

18:                                               ; preds = %8, %2
  call void @llvm.lifetime.start.p0(i64 8, ptr %5) #11
  %19 = load i64, ptr %3, align 8, !tbaa !52
  %20 = load i64, ptr %4, align 8, !tbaa !52
  %21 = call noalias ptr @calloc(i64 noundef %19, i64 noundef %20) #13
  store ptr %21, ptr %5, align 8, !tbaa !87
  %22 = load i64, ptr %3, align 8, !tbaa !52
  %23 = icmp ugt i64 %22, 0
  br i1 %23, label %24, label %36

24:                                               ; preds = %18
  %25 = load i64, ptr %4, align 8, !tbaa !52
  %26 = icmp ugt i64 %25, 0
  br i1 %26, label %27, label %36

27:                                               ; preds = %24
  %28 = load ptr, ptr %5, align 8, !tbaa !87
  %29 = icmp eq ptr %28, null
  br i1 %29, label %30, label %36

30:                                               ; preds = %27
  %31 = load ptr, ptr @stderr, align 8, !tbaa !85
  %32 = load i64, ptr %3, align 8, !tbaa !52
  %33 = load i64, ptr %4, align 8, !tbaa !52
  %34 = mul i64 %32, %33
  %35 = call i32 (ptr, ptr, ...) @fprintf(ptr noundef %31, ptr noundef @.str.1, i64 noundef %34) #11
  call void @graphviz_exit(i32 noundef 1) #12
  unreachable

36:                                               ; preds = %27, %24, %18
  %37 = load ptr, ptr %5, align 8, !tbaa !87
  call void @llvm.lifetime.end.p0(i64 8, ptr %5) #11
  ret ptr %37
}

; Function Attrs: nounwind uwtable
define void @SparseMatrix_distance_matrix(ptr noundef %0, ptr noundef %1) #0 {
  %3 = alloca ptr, align 8
  %4 = alloca ptr, align 8
  %5 = alloca ptr, align 8
  %6 = alloca i32, align 4
  %7 = alloca i32, align 4
  %8 = alloca ptr, align 8
  %9 = alloca ptr, align 8
  %10 = alloca ptr, align 8
  %11 = alloca i32, align 4
  %12 = alloca i32, align 4
  %13 = alloca i32, align 4
  %14 = alloca i32, align 4
  store ptr %0, ptr %3, align 8, !tbaa !3
  store ptr %1, ptr %4, align 8, !tbaa !126
  call void @llvm.lifetime.start.p0(i64 8, ptr %5) #11
  %15 = load ptr, ptr %3, align 8, !tbaa !3
  store ptr %15, ptr %5, align 8, !tbaa !3
  call void @llvm.lifetime.start.p0(i64 4, ptr %6) #11
  %16 = load ptr, ptr %5, align 8, !tbaa !3
  %17 = getelementptr inbounds nuw %struct.SparseMatrix_struct, ptr %16, i32 0, i32 0
  %18 = load i32, ptr %17, align 8, !tbaa !18
  store i32 %18, ptr %6, align 4, !tbaa !17
  call void @llvm.lifetime.start.p0(i64 4, ptr %7) #11
  %19 = load ptr, ptr %5, align 8, !tbaa !3
  %20 = getelementptr inbounds nuw %struct.SparseMatrix_struct, ptr %19, i32 0, i32 1
  %21 = load i32, ptr %20, align 4, !tbaa !19
  store i32 %21, ptr %7, align 4, !tbaa !17
  call void @llvm.lifetime.start.p0(i64 8, ptr %8) #11
  store ptr null, ptr %8, align 8, !tbaa !14
  call void @llvm.lifetime.start.p0(i64 8, ptr %9) #11
  store ptr null, ptr %9, align 8, !tbaa !14
  call void @llvm.lifetime.start.p0(i64 8, ptr %10) #11
  store ptr null, ptr %10, align 8, !tbaa !14
  call void @llvm.lifetime.start.p0(i64 4, ptr %11) #11
  call void @llvm.lifetime.start.p0(i64 4, ptr %12) #11
  call void @llvm.lifetime.start.p0(i64 4, ptr %13) #11
  call void @llvm.lifetime.start.p0(i64 4, ptr %14) #11
  %22 = load ptr, ptr %5, align 8, !tbaa !3
  %23 = call zeroext i1 @SparseMatrix_is_symmetric(ptr noundef %22, i1 noundef zeroext false)
  br i1 %23, label %27, label %24

24:                                               ; preds = %2
  %25 = load ptr, ptr %5, align 8, !tbaa !3
  %26 = call ptr @SparseMatrix_symmetrize(ptr noundef %25, i1 noundef zeroext false)
  store ptr %26, ptr %5, align 8, !tbaa !3
  br label %27

27:                                               ; preds = %24, %2
  %28 = load ptr, ptr %4, align 8, !tbaa !126
  %29 = load ptr, ptr %28, align 8, !tbaa !28
  %30 = icmp ne ptr %29, null
  br i1 %30, label %38, label %31

31:                                               ; preds = %27
  %32 = load i32, ptr %7, align 4, !tbaa !17
  %33 = load i32, ptr %7, align 4, !tbaa !17
  %34 = mul nsw i32 %32, %33
  %35 = sext i32 %34 to i64
  %36 = call ptr @gv_calloc(i64 noundef %35, i64 noundef 8)
  %37 = load ptr, ptr %4, align 8, !tbaa !126
  store ptr %36, ptr %37, align 8, !tbaa !28
  br label %38

38:                                               ; preds = %31, %27
  store i32 0, ptr %11, align 4, !tbaa !17
  br label %39

39:                                               ; preds = %51, %38
  %40 = load i32, ptr %11, align 4, !tbaa !17
  %41 = load i32, ptr %7, align 4, !tbaa !17
  %42 = load i32, ptr %7, align 4, !tbaa !17
  %43 = mul nsw i32 %41, %42
  %44 = icmp slt i32 %40, %43
  br i1 %44, label %45, label %54

45:                                               ; preds = %39
  %46 = load ptr, ptr %4, align 8, !tbaa !126
  %47 = load ptr, ptr %46, align 8, !tbaa !28
  %48 = load i32, ptr %11, align 4, !tbaa !17
  %49 = sext i32 %48 to i64
  %50 = getelementptr inbounds double, ptr %47, i64 %49
  store double -1.000000e+00, ptr %50, align 8, !tbaa !30
  br label %51

51:                                               ; preds = %45
  %52 = load i32, ptr %11, align 4, !tbaa !17
  %53 = add nsw i32 %52, 1
  store i32 %53, ptr %11, align 4, !tbaa !17
  br label %39, !llvm.loop !227

54:                                               ; preds = %39
  store i32 0, ptr %13, align 4, !tbaa !17
  br label %55

55:                                               ; preds = %105, %54
  %56 = load i32, ptr %13, align 4, !tbaa !17
  %57 = load i32, ptr %7, align 4, !tbaa !17
  %58 = icmp slt i32 %56, %57
  br i1 %58, label %59, label %108

59:                                               ; preds = %55
  %60 = load ptr, ptr %5, align 8, !tbaa !3
  %61 = load i32, ptr %13, align 4, !tbaa !17
  call void @SparseMatrix_level_sets(ptr noundef %60, i32 noundef %61, ptr noundef %14, ptr noundef %8, ptr noundef %9, ptr noundef %10, i1 noundef zeroext true)
  store i32 0, ptr %11, align 4, !tbaa !17
  br label %62

62:                                               ; preds = %101, %59
  %63 = load i32, ptr %11, align 4, !tbaa !17
  %64 = load i32, ptr %14, align 4, !tbaa !17
  %65 = icmp slt i32 %63, %64
  br i1 %65, label %66, label %104

66:                                               ; preds = %62
  %67 = load ptr, ptr %8, align 8, !tbaa !14
  %68 = load i32, ptr %11, align 4, !tbaa !17
  %69 = sext i32 %68 to i64
  %70 = getelementptr inbounds i32, ptr %67, i64 %69
  %71 = load i32, ptr %70, align 4, !tbaa !17
  store i32 %71, ptr %12, align 4, !tbaa !17
  br label %72

72:                                               ; preds = %97, %66
  %73 = load i32, ptr %12, align 4, !tbaa !17
  %74 = load ptr, ptr %8, align 8, !tbaa !14
  %75 = load i32, ptr %11, align 4, !tbaa !17
  %76 = add nsw i32 %75, 1
  %77 = sext i32 %76 to i64
  %78 = getelementptr inbounds i32, ptr %74, i64 %77
  %79 = load i32, ptr %78, align 4, !tbaa !17
  %80 = icmp slt i32 %73, %79
  br i1 %80, label %81, label %100

81:                                               ; preds = %72
  %82 = load i32, ptr %11, align 4, !tbaa !17
  %83 = sitofp i32 %82 to double
  %84 = load ptr, ptr %4, align 8, !tbaa !126
  %85 = load ptr, ptr %84, align 8, !tbaa !28
  %86 = load i32, ptr %13, align 4, !tbaa !17
  %87 = load i32, ptr %7, align 4, !tbaa !17
  %88 = mul nsw i32 %86, %87
  %89 = load ptr, ptr %9, align 8, !tbaa !14
  %90 = load i32, ptr %12, align 4, !tbaa !17
  %91 = sext i32 %90 to i64
  %92 = getelementptr inbounds i32, ptr %89, i64 %91
  %93 = load i32, ptr %92, align 4, !tbaa !17
  %94 = add nsw i32 %88, %93
  %95 = sext i32 %94 to i64
  %96 = getelementptr inbounds double, ptr %85, i64 %95
  store double %83, ptr %96, align 8, !tbaa !30
  br label %97

97:                                               ; preds = %81
  %98 = load i32, ptr %12, align 4, !tbaa !17
  %99 = add nsw i32 %98, 1
  store i32 %99, ptr %12, align 4, !tbaa !17
  br label %72, !llvm.loop !228

100:                                              ; preds = %72
  br label %101

101:                                              ; preds = %100
  %102 = load i32, ptr %11, align 4, !tbaa !17
  %103 = add nsw i32 %102, 1
  store i32 %103, ptr %11, align 4, !tbaa !17
  br label %62, !llvm.loop !229

104:                                              ; preds = %62
  br label %105

105:                                              ; preds = %104
  %106 = load i32, ptr %13, align 4, !tbaa !17
  %107 = add nsw i32 %106, 1
  store i32 %107, ptr %13, align 4, !tbaa !17
  br label %55, !llvm.loop !230

108:                                              ; preds = %55
  %109 = load ptr, ptr %8, align 8, !tbaa !14
  call void @free(ptr noundef %109) #11
  %110 = load ptr, ptr %9, align 8, !tbaa !14
  call void @free(ptr noundef %110) #11
  %111 = load ptr, ptr %10, align 8, !tbaa !14
  call void @free(ptr noundef %111) #11
  %112 = load ptr, ptr %5, align 8, !tbaa !3
  %113 = load ptr, ptr %3, align 8, !tbaa !3
  %114 = icmp ne ptr %112, %113
  br i1 %114, label %115, label %117

115:                                              ; preds = %108
  %116 = load ptr, ptr %5, align 8, !tbaa !3
  call void @SparseMatrix_delete(ptr noundef %116)
  br label %117

117:                                              ; preds = %115, %108
  call void @llvm.lifetime.end.p0(i64 4, ptr %14) #11
  call void @llvm.lifetime.end.p0(i64 4, ptr %13) #11
  call void @llvm.lifetime.end.p0(i64 4, ptr %12) #11
  call void @llvm.lifetime.end.p0(i64 4, ptr %11) #11
  call void @llvm.lifetime.end.p0(i64 8, ptr %10) #11
  call void @llvm.lifetime.end.p0(i64 8, ptr %9) #11
  call void @llvm.lifetime.end.p0(i64 8, ptr %8) #11
  call void @llvm.lifetime.end.p0(i64 4, ptr %7) #11
  call void @llvm.lifetime.end.p0(i64 4, ptr %6) #11
  call void @llvm.lifetime.end.p0(i64 8, ptr %5) #11
  ret void
}