; Function Attrs: nounwind uwtable
define void @SparseMatrix_distance_matrix(ptr noundef captures(address) %0, ptr noundef captures(none) %1) local_unnamed_addr #0 {
  %3 = alloca ptr, align 8
  %4 = alloca ptr, align 8
  %5 = alloca ptr, align 8
  %6 = alloca i32, align 4
  %7 = getelementptr inbounds nuw i8, ptr %0, i64 4
  %8 = load i32, ptr %7, align 4, !tbaa !16
  call void @llvm.lifetime.start.p0(i64 8, ptr nonnull %3) #17
  store ptr null, ptr %3, align 8, !tbaa !169
  call void @llvm.lifetime.start.p0(i64 8, ptr nonnull %4) #17
  store ptr null, ptr %4, align 8, !tbaa !169
  call void @llvm.lifetime.start.p0(i64 8, ptr nonnull %5) #17
  store ptr null, ptr %5, align 8, !tbaa !169
  call void @llvm.lifetime.start.p0(i64 4, ptr nonnull %6) #17
  %9 = tail call zeroext i1 @SparseMatrix_is_symmetric(ptr noundef %0, i1 noundef zeroext false)
  br i1 %9, label %12, label %10

10:                                               ; preds = %2
  %11 = tail call ptr @SparseMatrix_symmetrize(ptr noundef nonnull %0, i1 noundef zeroext false)
  br label %12

12:                                               ; preds = %10, %2
  %.035 = phi ptr [ %0, %2 ], [ %11, %10 ]
  %13 = load ptr, ptr %1, align 8, !tbaa !111
  %.not = icmp eq ptr %13, null
  %14 = mul i32 %8, %8
  br i1 %.not, label %15, label %._crit_edge64

15:                                               ; preds = %12
  %16 = zext nneg i32 %14 to i64
  %.not40 = icmp ne i32 %8, 0
  %17 = tail call noalias ptr @calloc(i64 noundef range(i64 -4294967296, 4294967295) %16, i64 noundef 8) #20
  %18 = icmp eq ptr %17, null
  %or.cond66 = and i1 %.not40, %18
  br i1 %or.cond66, label %19, label %gv_calloc.exit

19:                                               ; preds = %15
  %20 = load ptr, ptr @stderr, align 8, !tbaa !43
  %21 = shl nuw nsw i64 %16, 3
  %22 = tail call i32 (ptr, ptr, ...) @fprintf(ptr noundef %20, ptr noundef nonnull @.str.1, i64 noundef %21) #18
  tail call fastcc void @graphviz_exit() #19
  unreachable

gv_calloc.exit:                                   ; preds = %15
  store ptr %17, ptr %1, align 8, !tbaa !111
  br label %._crit_edge64

._crit_edge64:                                    ; preds = %12, %gv_calloc.exit
  %23 = phi ptr [ %17, %gv_calloc.exit ], [ %13, %12 ]
  %.not49 = icmp eq i32 %8, 0
  br i1 %.not49, label %._crit_edge48, label %.lr.ph

.lr.ph:                                           ; preds = %._crit_edge64
  %umax = tail call i32 @llvm.umax.i32(i32 %14, i32 1)
  %wide.trip.count = zext i32 %umax to i64
  br label %25

.preheader:                                       ; preds = %25
  %24 = icmp sgt i32 %8, 0
  br i1 %24, label %.lr.ph47, label %._crit_edge48

25:                                               ; preds = %.lr.ph, %25
  %indvars.iv = phi i64 [ 0, %.lr.ph ], [ %indvars.iv.next, %25 ]
  %26 = getelementptr inbounds nuw double, ptr %23, i64 %indvars.iv
  store double -1.000000e+00, ptr %26, align 8, !tbaa !25
  %indvars.iv.next = add nuw nsw i64 %indvars.iv, 1
  %exitcond.not = icmp eq i64 %indvars.iv.next, %wide.trip.count
  br i1 %exitcond.not, label %.preheader, label %25, !llvm.loop !204

.lr.ph47:                                         ; preds = %.preheader, %._crit_edge
  %.046 = phi i32 [ %47, %._crit_edge ], [ 0, %.preheader ]
  call fastcc void @SparseMatrix_level_sets(ptr noundef %.035, i32 noundef %.046, ptr noundef %6, ptr noundef %3, ptr noundef %4, ptr noundef %5, i1 noundef zeroext true)
  %27 = load i32, ptr %6, align 4, !tbaa !19
  %28 = icmp sgt i32 %27, 0
  br i1 %28, label %.lr.ph45, label %._crit_edge

.lr.ph45:                                         ; preds = %.lr.ph47
  %29 = load ptr, ptr %3, align 8, !tbaa !169
  %30 = mul nuw nsw i32 %.046, %8
  %31 = load ptr, ptr %4, align 8
  %wide.trip.count59 = zext nneg i32 %27 to i64
  %.pre = load i32, ptr %29, align 4, !tbaa !19
  br label %32

.loopexit:                                        ; preds = %41, %32
  %exitcond60.not = icmp eq i64 %indvars.iv.next57, %wide.trip.count59
  br i1 %exitcond60.not, label %._crit_edge, label %32, !llvm.loop !205

32:                                               ; preds = %.lr.ph45, %.loopexit
  %33 = phi i32 [ %.pre, %.lr.ph45 ], [ %35, %.loopexit ]
  %indvars.iv56 = phi i64 [ 0, %.lr.ph45 ], [ %indvars.iv.next57, %.loopexit ]
  %indvars.iv.next57 = add nuw nsw i64 %indvars.iv56, 1
  %34 = getelementptr inbounds nuw i32, ptr %29, i64 %indvars.iv.next57
  %35 = load i32, ptr %34, align 4, !tbaa !19
  %36 = icmp slt i32 %33, %35
  br i1 %36, label %.lr.ph43, label %.loopexit

.lr.ph43:                                         ; preds = %32
  %37 = trunc nuw nsw i64 %indvars.iv56 to i32
  %38 = uitofp nneg i32 %37 to double
  %39 = load ptr, ptr %1, align 8, !tbaa !111
  %40 = sext i32 %33 to i64
  %wide.trip.count54 = sext i32 %35 to i64
  br label %41

41:                                               ; preds = %.lr.ph43, %41
  %indvars.iv51 = phi i64 [ %40, %.lr.ph43 ], [ %indvars.iv.next52, %41 ]
  %42 = getelementptr inbounds i32, ptr %31, i64 %indvars.iv51
  %43 = load i32, ptr %42, align 4, !tbaa !19
  %44 = add nsw i32 %43, %30
  %45 = sext i32 %44 to i64
  %46 = getelementptr inbounds double, ptr %39, i64 %45
  store double %38, ptr %46, align 8, !tbaa !25
  %indvars.iv.next52 = add nsw i64 %indvars.iv51, 1
  %exitcond55.not = icmp eq i64 %indvars.iv.next52, %wide.trip.count54
  br i1 %exitcond55.not, label %.loopexit, label %41, !llvm.loop !206

._crit_edge:                                      ; preds = %.loopexit, %.lr.ph47
  %47 = add nuw nsw i32 %.046, 1
  %exitcond61.not = icmp eq i32 %47, %8
  br i1 %exitcond61.not, label %._crit_edge48.loopexit, label %.lr.ph47, !llvm.loop !207

._crit_edge48.loopexit:                           ; preds = %._crit_edge
  %.pre62 = load ptr, ptr %3, align 8, !tbaa !169
  %.pre63 = load ptr, ptr %5, align 8, !tbaa !169
  br label %._crit_edge48

._crit_edge48:                                    ; preds = %._crit_edge64, %._crit_edge48.loopexit, %.preheader
  %48 = phi ptr [ %.pre63, %._crit_edge48.loopexit ], [ null, %.preheader ], [ null, %._crit_edge64 ]
  %49 = phi ptr [ %.pre62, %._crit_edge48.loopexit ], [ null, %.preheader ], [ null, %._crit_edge64 ]
  tail call void @free(ptr noundef %49) #17
  %50 = load ptr, ptr %4, align 8, !tbaa !169
  tail call void @free(ptr noundef %50) #17
  tail call void @free(ptr noundef %48) #17
  %.not37 = icmp eq ptr %.035, %0
  %.not.i = icmp eq ptr %.035, null
  %or.cond = or i1 %.not37, %.not.i
  br i1 %or.cond, label %SparseMatrix_delete.exit, label %51

51:                                               ; preds = %._crit_edge48
  %52 = getelementptr inbounds nuw i8, ptr %.035, i64 24
  %53 = load ptr, ptr %52, align 8, !tbaa !3
  tail call void @free(ptr noundef %53) #17
  %54 = getelementptr inbounds nuw i8, ptr %.035, i64 32
  %55 = load ptr, ptr %54, align 8, !tbaa !12
  tail call void @free(ptr noundef %55) #17
  %56 = getelementptr inbounds nuw i8, ptr %.035, i64 40
  %57 = load ptr, ptr %56, align 8, !tbaa !13
  tail call void @free(ptr noundef %57) #17
  tail call void @free(ptr noundef nonnull %.035) #17
  br label %SparseMatrix_delete.exit

SparseMatrix_delete.exit:                         ; preds = %51, %._crit_edge48
  call void @llvm.lifetime.end.p0(i64 4, ptr nonnull %6) #17
  call void @llvm.lifetime.end.p0(i64 8, ptr nonnull %5) #17
  call void @llvm.lifetime.end.p0(i64 8, ptr nonnull %4) #17
  call void @llvm.lifetime.end.p0(i64 8, ptr nonnull %3) #17
  ret void
}